target datalayout = "e-m:e-p270:32:32-p271:32:32-p272:64:64-i64:64-i128:128-f80:128-n8:16:32:64-S128"
target triple = "x86_64-pc-linux-gnu"

@.str.1 = private unnamed_addr constant [5 x i8] c"bits\00", align 1
@.str.6 = private unnamed_addr constant [14 x i8] c"security-bits\00", align 1
@.str.7 = private unnamed_addr constant [9 x i8] c"max-size\00", align 1
@.str.8 = private unnamed_addr constant [15 x i8] c"default-digest\00", align 1
@.str.9 = private unnamed_addr constant [7 x i8] c"SHA256\00", align 1
@.str.10 = private unnamed_addr constant [17 x i8] c"mandatory-digest\00", align 1

; Function Attrs: nounwind uwtable
define internal i32 @rsa_get_params(ptr noundef %0, ptr noundef %1) #0 {
  %3 = alloca i32, align 4
  %4 = alloca ptr, align 8
  %5 = alloca ptr, align 8
  %6 = alloca ptr, align 8
  %7 = alloca ptr, align 8
  %8 = alloca i32, align 4
  %9 = alloca ptr, align 8
  %10 = alloca i32, align 4
  %11 = alloca i32, align 4
  %12 = alloca ptr, align 8
  store ptr %0, ptr %4, align 8, !tbaa !3
  store ptr %1, ptr %5, align 8, !tbaa !13
  call void @llvm.lifetime.start.p0(i64 8, ptr %6) #6
  %13 = load ptr, ptr %4, align 8, !tbaa !3
  store ptr %13, ptr %6, align 8, !tbaa !9
  call void @llvm.lifetime.start.p0(i64 8, ptr %7) #6
  %14 = load ptr, ptr %6, align 8, !tbaa !9
  %15 = call ptr @ossl_rsa_get0_pss_params_30(ptr noundef %14)
  store ptr %15, ptr %7, align 8, !tbaa !33
  call void @llvm.lifetime.start.p0(i64 4, ptr %8) #6
  %16 = load ptr, ptr %6, align 8, !tbaa !9
  %17 = call i32 @RSA_test_flags(ptr noundef %16, i32 noundef 61440)
  store i32 %17, ptr %8, align 4, !tbaa !11
  call void @llvm.lifetime.start.p0(i64 8, ptr %9) #6
  call void @llvm.lifetime.start.p0(i64 4, ptr %10) #6
  %18 = load ptr, ptr %6, align 8, !tbaa !9
  %19 = call ptr @RSA_get0_n(ptr noundef %18)
  %20 = icmp eq ptr %19, null
  %21 = zext i1 %20 to i32
  store i32 %21, ptr %10, align 4, !tbaa !11
  %22 = load ptr, ptr %5, align 8, !tbaa !13
  %23 = call ptr @OSSL_PARAM_locate(ptr noundef %22, ptr noundef @.str.1)
  store ptr %23, ptr %9, align 8, !tbaa !13
  %24 = icmp ne ptr %23, null
  br i1 %24, label %25, label %35

25:                                               ; preds = %2
  %26 = load i32, ptr %10, align 4, !tbaa !11
  %27 = icmp ne i32 %26, 0
  br i1 %27, label %34, label %28

28:                                               ; preds = %25
  %29 = load ptr, ptr %9, align 8, !tbaa !13
  %30 = load ptr, ptr %6, align 8, !tbaa !9
  %31 = call i32 @RSA_bits(ptr noundef %30)
  %32 = call i32 @OSSL_PARAM_set_int(ptr noundef %29, i32 noundef %31)
  %33 = icmp ne i32 %32, 0
  br i1 %33, label %35, label %34

34:                                               ; preds = %28, %25
  store i32 0, ptr %3, align 4
  store i32 1, ptr %11, align 4
  br label %123

35:                                               ; preds = %28, %2
  %36 = load ptr, ptr %5, align 8, !tbaa !13
  %37 = call ptr @OSSL_PARAM_locate(ptr noundef %36, ptr noundef @.str.6)
  store ptr %37, ptr %9, align 8, !tbaa !13
  %38 = icmp ne ptr %37, null
  br i1 %38, label %39, label %49

39:                                               ; preds = %35
  %40 = load i32, ptr %10, align 4, !tbaa !11
  %41 = icmp ne i32 %40, 0
  br i1 %41, label %48, label %42

42:                                               ; preds = %39
  %43 = load ptr, ptr %9, align 8, !tbaa !13
  %44 = load ptr, ptr %6, align 8, !tbaa !9
  %45 = call i32 @RSA_security_bits(ptr noundef %44)
  %46 = call i32 @OSSL_PARAM_set_int(ptr noundef %43, i32 noundef %45)
  %47 = icmp ne i32 %46, 0
  br i1 %47, label %49, label %48

48:                                               ; preds = %42, %39
  store i32 0, ptr %3, align 4
  store i32 1, ptr %11, align 4
  br label %123

49:                                               ; preds = %42, %35
  %50 = load ptr, ptr %5, align 8, !tbaa !13
  %51 = call ptr @OSSL_PARAM_locate(ptr noundef %50, ptr noundef @.str.7)
  store ptr %51, ptr %9, align 8, !tbaa !13
  %52 = icmp ne ptr %51, null
  br i1 %52, label %53, label %63

53:                                               ; preds = %49
  %54 = load i32, ptr %10, align 4, !tbaa !11
  %55 = icmp ne i32 %54, 0
  br i1 %55, label %62, label %56

56:                                               ; preds = %53
  %57 = load ptr, ptr %9, align 8, !tbaa !13
  %58 = load ptr, ptr %6, align 8, !tbaa !9
  %59 = call i32 @RSA_size(ptr noundef %58)
  %60 = call i32 @OSSL_PARAM_set_int(ptr noundef %57, i32 noundef %59)
  %61 = icmp ne i32 %60, 0
  br i1 %61, label %63, label %62

62:                                               ; preds = %56, %53
  store i32 0, ptr %3, align 4
  store i32 1, ptr %11, align 4
  br label %123

63:                                               ; preds = %56, %49
  %64 = load ptr, ptr %5, align 8, !tbaa !13
  %65 = call ptr @OSSL_PARAM_locate(ptr noundef %64, ptr noundef @.str.8)
  store ptr %65, ptr %9, align 8, !tbaa !13
  %66 = icmp ne ptr %65, null
  br i1 %66, label %67, label %80

67:                                               ; preds = %63
  %68 = load i32, ptr %8, align 4, !tbaa !11
  %69 = icmp ne i32 %68, 4096
  br i1 %69, label %74, label %70

70:                                               ; preds = %67
  %71 = load ptr, ptr %7, align 8, !tbaa !33
  %72 = call i32 @ossl_rsa_pss_params_30_is_unrestricted(ptr noundef %71)
  %73 = icmp ne i32 %72, 0
  br i1 %73, label %74, label %80

74:                                               ; preds = %70, %67
  %75 = load ptr, ptr %9, align 8, !tbaa !13
  %76 = call i32 @OSSL_PARAM_set_utf8_string(ptr noundef %75, ptr noundef @.str.9)
  %77 = icmp ne i32 %76, 0
  br i1 %77, label %79, label %78

78:                                               ; preds = %74
  store i32 0, ptr %3, align 4
  store i32 1, ptr %11, align 4
  br label %123

79:                                               ; preds = %74
  br label %80

80:                                               ; preds = %79, %70, %63
  %81 = load ptr, ptr %5, align 8, !tbaa !13
  %82 = call ptr @OSSL_PARAM_locate(ptr noundef %81, ptr noundef @.str.10)
  store ptr %82, ptr %9, align 8, !tbaa !13
  %83 = icmp ne ptr %82, null
  br i1 %83, label %84, label %107

84:                                               ; preds = %80
  %85 = load i32, ptr %8, align 4, !tbaa !11
  %86 = icmp eq i32 %85, 4096
  br i1 %86, label %87, label %107

87:                                               ; preds = %84
  %88 = load ptr, ptr %7, align 8, !tbaa !33
  %89 = call i32 @ossl_rsa_pss_params_30_is_unrestricted(ptr noundef %88)
  %90 = icmp ne i32 %89, 0
  br i1 %90, label %107, label %91

91:                                               ; preds = %87
  call void @llvm.lifetime.start.p0(i64 8, ptr %12) #6
  %92 = load ptr, ptr %7, align 8, !tbaa !33
  %93 = call i32 @ossl_rsa_pss_params_30_hashalg(ptr noundef %92)
  %94 = call ptr @ossl_rsa_oaeppss_nid2name(i32 noundef %93)
  store ptr %94, ptr %12, align 8, !tbaa !35
  %95 = load ptr, ptr %12, align 8, !tbaa !35
  %96 = icmp eq ptr %95, null
  br i1 %96, label %102, label %97

97:                                               ; preds = %91
  %98 = load ptr, ptr %9, align 8, !tbaa !13
  %99 = load ptr, ptr %12, align 8, !tbaa !35
  %100 = call i32 @OSSL_PARAM_set_utf8_string(ptr noundef %98, ptr noundef %99)
  %101 = icmp ne i32 %100, 0
  br i1 %101, label %103, label %102

102:                                              ; preds = %97, %91
  store i32 0, ptr %3, align 4
  store i32 1, ptr %11, align 4
  br label %104

103:                                              ; preds = %97
  store i32 0, ptr %11, align 4
  br label %104

104:                                              ; preds = %103, %102
  call void @llvm.lifetime.end.p0(i64 8, ptr %12) #6
  %105 = load i32, ptr %11, align 4
  switch i32 %105, label %123 [
    i32 0, label %106
  ]

106:                                              ; preds = %104
  br label %107

107:                                              ; preds = %106, %87, %84, %80
  %108 = load i32, ptr %8, align 4, !tbaa !11
  %109 = icmp ne i32 %108, 4096
  br i1 %109, label %115, label %110

110:                                              ; preds = %107
  %111 = load ptr, ptr %7, align 8, !tbaa !33
  %112 = load ptr, ptr %5, align 8, !tbaa !13
  %113 = call i32 @ossl_rsa_pss_params_30_todata(ptr noundef %111, ptr noundef null, ptr noundef %112)
  %114 = icmp ne i32 %113, 0
  br i1 %114, label %115, label %120

115:                                              ; preds = %110, %107
  %116 = load ptr, ptr %6, align 8, !tbaa !9
  %117 = load ptr, ptr %5, align 8, !tbaa !13
  %118 = call i32 @ossl_rsa_todata(ptr noundef %116, ptr noundef null, ptr noundef %117, i32 noundef 1)
  %119 = icmp ne i32 %118, 0
  br label %120

120:                                              ; preds = %115, %110
  %121 = phi i1 [ false, %110 ], [ %119, %115 ]
  %122 = zext i1 %121 to i32
  store i32 %122, ptr %3, align 4
  store i32 1, ptr %11, align 4
  br label %123

123:                                              ; preds = %120, %104, %78, %62, %48, %34
  call void @llvm.lifetime.end.p0(i64 4, ptr %10) #6
  call void @llvm.lifetime.end.p0(i64 8, ptr %9) #6
  call void @llvm.lifetime.end.p0(i64 4, ptr %8) #6
  call void @llvm.lifetime.end.p0(i64 8, ptr %7) #6
  call void @llvm.lifetime.end.p0(i64 8, ptr %6) #6
  %124 = load i32, ptr %3, align 4
  ret i32 %124
}