; Function Attrs: nounwind uwtable
define internal range(i32 0, 2) i32 @rsa_get_params(ptr noundef %0, ptr noundef %1) #0 {
  %3 = tail call ptr @ossl_rsa_get0_pss_params_30(ptr noundef %0) #6
  %4 = tail call i32 @RSA_test_flags(ptr noundef %0, i32 noundef 61440) #6
  %5 = tail call ptr @RSA_get0_n(ptr noundef %0) #6
  %6 = icmp eq ptr %5, null
  %7 = tail call ptr @OSSL_PARAM_locate(ptr noundef %1, ptr noundef nonnull @.str.1) #6
  %.not = icmp eq ptr %7, null
  br i1 %.not, label %12, label %8

8:                                                ; preds = %2
  br i1 %6, label %49, label %9

9:                                                ; preds = %8
  %10 = tail call i32 @RSA_bits(ptr noundef %0) #6
  %11 = tail call i32 @OSSL_PARAM_set_int(ptr noundef nonnull %7, i32 noundef %10) #6
  %.not41 = icmp eq i32 %11, 0
  br i1 %.not41, label %49, label %.thread

12:                                               ; preds = %2
  %13 = tail call ptr @OSSL_PARAM_locate(ptr noundef %1, ptr noundef nonnull @.str.6) #6
  %.not42 = icmp eq ptr %13, null
  br i1 %.not42, label %19, label %15

.thread:                                          ; preds = %9
  %14 = tail call ptr @OSSL_PARAM_locate(ptr noundef %1, ptr noundef nonnull @.str.6) #6
  %.not4254 = icmp eq ptr %14, null
  br i1 %.not4254, label %19, label %.thread55

15:                                               ; preds = %12
  br i1 %6, label %49, label %.thread55

.thread55:                                        ; preds = %.thread, %15
  %16 = phi ptr [ %13, %15 ], [ %14, %.thread ]
  %17 = tail call i32 @RSA_security_bits(ptr noundef %0) #6
  %18 = tail call i32 @OSSL_PARAM_set_int(ptr noundef nonnull %16, i32 noundef %17) #6
  %.not43 = icmp eq i32 %18, 0
  br i1 %.not43, label %49, label %19

19:                                               ; preds = %.thread, %.thread55, %12
  %20 = tail call ptr @OSSL_PARAM_locate(ptr noundef %1, ptr noundef nonnull @.str.7) #6
  %.not44 = icmp eq ptr %20, null
  br i1 %.not44, label %25, label %21

21:                                               ; preds = %19
  br i1 %6, label %49, label %22

22:                                               ; preds = %21
  %23 = tail call i32 @RSA_size(ptr noundef %0) #6
  %24 = tail call i32 @OSSL_PARAM_set_int(ptr noundef nonnull %20, i32 noundef %23) #6
  %.not45 = icmp eq i32 %24, 0
  br i1 %.not45, label %49, label %25

25:                                               ; preds = %22, %19
  %26 = tail call ptr @OSSL_PARAM_locate(ptr noundef %1, ptr noundef nonnull @.str.8) #6
  %.not46 = icmp eq ptr %26, null
  br i1 %.not46, label %32, label %27

27:                                               ; preds = %25
  %.not47 = icmp eq i32 %4, 4096
  br i1 %.not47, label %28, label %30

28:                                               ; preds = %27
  %29 = tail call i32 @ossl_rsa_pss_params_30_is_unrestricted(ptr noundef %3) #6
  %.not48 = icmp eq i32 %29, 0
  br i1 %.not48, label %32, label %30

30:                                               ; preds = %28, %27
  %31 = tail call i32 @OSSL_PARAM_set_utf8_string(ptr noundef nonnull %26, ptr noundef nonnull @.str.9) #6
  %.not49 = icmp eq i32 %31, 0
  br i1 %.not49, label %49, label %32

32:                                               ; preds = %30, %28, %25
  %33 = tail call ptr @OSSL_PARAM_locate(ptr noundef %1, ptr noundef nonnull @.str.10) #6
  %34 = icmp ne ptr %33, null
  %35 = icmp eq i32 %4, 4096
  %or.cond = select i1 %34, i1 %35, i1 false
  br i1 %or.cond, label %36, label %.critedge

36:                                               ; preds = %32
  %37 = tail call i32 @ossl_rsa_pss_params_30_is_unrestricted(ptr noundef %3) #6
  %.not50 = icmp eq i32 %37, 0
  br i1 %.not50, label %38, label %.critedge.thread

38:                                               ; preds = %36
  %39 = tail call i32 @ossl_rsa_pss_params_30_hashalg(ptr noundef %3) #6
  %40 = tail call ptr @ossl_rsa_oaeppss_nid2name(i32 noundef %39) #6
  %41 = icmp eq ptr %40, null
  br i1 %41, label %49, label %42

42:                                               ; preds = %38
  %43 = tail call i32 @OSSL_PARAM_set_utf8_string(ptr noundef nonnull %33, ptr noundef nonnull %40) #6
  %.not51 = icmp eq i32 %43, 0
  br i1 %.not51, label %49, label %.critedge.thread

.critedge:                                        ; preds = %32
  br i1 %35, label %.critedge.thread, label %45

.critedge.thread:                                 ; preds = %36, %42, %.critedge
  %44 = tail call i32 @ossl_rsa_pss_params_30_todata(ptr noundef %3, ptr noundef null, ptr noundef %1) #6
  %.not53 = icmp eq i32 %44, 0
  br i1 %.not53, label %49, label %45

45:                                               ; preds = %.critedge.thread, %.critedge
  %46 = tail call i32 @ossl_rsa_todata(ptr noundef %0, ptr noundef null, ptr noundef %1, i32 noundef 1) #6
  %47 = icmp ne i32 %46, 0
  %48 = zext i1 %47 to i32
  br label %49

49:                                               ; preds = %.critedge.thread, %45, %42, %38, %30, %21, %22, %15, %.thread55, %8, %9
  %.0 = phi i32 [ 0, %9 ], [ 0, %8 ], [ 0, %.thread55 ], [ 0, %15 ], [ 0, %22 ], [ 0, %21 ], [ 0, %30 ], [ 0, %38 ], [ 0, %42 ], [ 0, %.critedge.thread ], [ %48, %45 ]
  ret i32 %.0
}